target datalayout = "e-m:e-p270:32:32-p271:32:32-p272:64:64-i64:64-i128:128-f80:128-n8:16:32:64-S128"
target triple = "x86_64-pc-linux-gnu"

%"struct.std::__detail::_Hash_node_base" = type { ptr }
%"struct.std::__detail::_Prime_rehash_policy" = type { float, i64 }
%"class.open3d::core::Dtype" = type { i32, i64, [16 x i8] }
%"class.open3d::t::geometry::AxisAlignedBoundingBox" = type { %"class.open3d::t::geometry::Geometry", %"class.open3d::t::geometry::DrawableGeometry", %"class.open3d::core::Device", %"class.open3d::core::Dtype", %"class.open3d::core::Tensor", %"class.open3d::core::Tensor", %"class.open3d::core::Tensor" }
%"class.open3d::t::geometry::Geometry" = type { %"class.open3d::core::IsDevice", i32, i32, %"class.std::__cxx11::basic_string" }
%"class.open3d::core::IsDevice" = type { ptr }
%"class.std::__cxx11::basic_string" = type { %"struct.std::__cxx11::basic_string<char>::_Alloc_hider", i64, %union.anon }
%"struct.std::__cxx11::basic_string<char>::_Alloc_hider" = type { ptr }
%union.anon = type { i64, [8 x i8] }
%"class.open3d::t::geometry::DrawableGeometry" = type { %"class.open3d::visualization::rendering::Material" }
%"class.open3d::visualization::rendering::Material" = type { %"class.std::__cxx11::basic_string", %"class.std::unordered_map.16", %"class.std::unordered_map.36", %"class.std::unordered_map.50" }
%"class.std::unordered_map.16" = type { %"class.std::_Hashtable.17" }
%"class.std::_Hashtable.17" = type { ptr, i64, %"struct.std::__detail::_Hash_node_base", i64, %"struct.std::__detail::_Prime_rehash_policy", ptr }
%"class.std::unordered_map.36" = type { %"class.std::_Hashtable.37" }
%"class.std::_Hashtable.37" = type { ptr, i64, %"struct.std::__detail::_Hash_node_base", i64, %"struct.std::__detail::_Prime_rehash_policy", ptr }
%"class.std::unordered_map.50" = type { %"class.std::_Hashtable.51" }
%"class.std::_Hashtable.51" = type { ptr, i64, %"struct.std::__detail::_Hash_node_base", i64, %"struct.std::__detail::_Prime_rehash_policy", ptr }
%"class.open3d::core::Device" = type { i32, i32 }
%"class.open3d::core::Tensor" = type { %"class.open3d::core::IsDevice", %"class.open3d::core::SizeVector", %"class.open3d::core::SizeVector", ptr, %"class.open3d::core::Dtype", %"class.std::shared_ptr" }
%"class.open3d::core::SizeVector" = type { %"class.open3d::core::SmallVector" }
%"class.open3d::core::SmallVector" = type { %"class.open3d::core::SmallVectorImpl", %"struct.open3d::core::SmallVectorStorage" }
%"class.open3d::core::SmallVectorImpl" = type { %"class.open3d::core::SmallVectorTemplateBase" }
%"class.open3d::core::SmallVectorTemplateBase" = type { %"class.open3d::core::SmallVectorTemplateCommon" }
%"class.open3d::core::SmallVectorTemplateCommon" = type { %"class.open3d::core::SmallVectorBase" }
%"class.open3d::core::SmallVectorBase" = type { ptr, i32, i32 }
%"struct.open3d::core::SmallVectorStorage" = type { [32 x i8] }
%"class.std::shared_ptr" = type { %"class.std::__shared_ptr" }
%"class.std::__shared_ptr" = type { ptr, %"class.std::__shared_count" }
%"class.std::__shared_count" = type { ptr }

; Function Attrs: mustprogress ssp uwtable
define void @_ZNK6open3d1t8geometry19OrientedBoundingBox25GetAxisAlignedBoundingBoxEv(ptr dead_on_unwind noalias writable sret(%"class.open3d::t::geometry::AxisAlignedBoundingBox") align 8 %0, ptr noundef nonnull align 8 dereferenceable(928) %1) #1 align 2 personality ptr @__gxx_personality_v0 {
  %3 = alloca ptr, align 8
  %4 = alloca ptr, align 8
  %5 = alloca %"class.open3d::core::Tensor", align 8
  %6 = alloca ptr, align 8
  %7 = alloca i32, align 4
  store ptr %0, ptr %3, align 8
  store ptr %1, ptr %4, align 8, !tbaa !22
  %8 = load ptr, ptr %4, align 8
  call void @llvm.lifetime.start.p0(i64 160, ptr %5) #7
  call void @_ZNK6open3d1t8geometry19OrientedBoundingBox12GetBoxPointsEv(ptr dead_on_unwind writable sret(%"class.open3d::core::Tensor") align 8 %5, ptr noundef nonnull align 8 dereferenceable(928) %8)
  invoke void @_ZN6open3d1t8geometry22AxisAlignedBoundingBox16CreateFromPointsERKNS_4core6TensorE(ptr dead_on_unwind writable sret(%"class.open3d::t::geometry::AxisAlignedBoundingBox") align 8 %0, ptr noundef nonnull align 8 dereferenceable(160) %5)
          to label %9 unwind label %10

9:                                                ; preds = %2
  call void @_ZN6open3d4core6TensorD2Ev(ptr noundef nonnull align 8 dereferenceable(160) %5) #7
  call void @llvm.lifetime.end.p0(i64 160, ptr %5) #7
  ret void

10:                                               ; preds = %2
  %11 = landingpad { ptr, i32 }
          cleanup
  %12 = extractvalue { ptr, i32 } %11, 0
  store ptr %12, ptr %6, align 8
  %13 = extractvalue { ptr, i32 } %11, 1
  store i32 %13, ptr %7, align 4
  call void @_ZN6open3d4core6TensorD2Ev(ptr noundef nonnull align 8 dereferenceable(160) %5) #7
  call void @llvm.lifetime.end.p0(i64 160, ptr %5) #7
  br label %14

14:                                               ; preds = %10
  %15 = load ptr, ptr %6, align 8
  %16 = load i32, ptr %7, align 4
  %17 = insertvalue { ptr, i32 } poison, ptr %15, 0
  %18 = insertvalue { ptr, i32 } %17, i32 %16, 1
  resume { ptr, i32 } %18
}