; Function Attrs: mustprogress ssp uwtable
define void @_ZNK6open3d1t8geometry19OrientedBoundingBox25GetAxisAlignedBoundingBoxEv(ptr dead_on_unwind noalias writable sret(%"class.open3d::t::geometry::AxisAlignedBoundingBox") align 8 %0, ptr noundef nonnull align 8 dereferenceable(928) %1) local_unnamed_addr #1 align 2 personality ptr @__gxx_personality_v0 {
  %3 = alloca %"class.open3d::core::Tensor", align 8
  call void @llvm.lifetime.start.p0(i64 160, ptr nonnull %3) #34
  call void @_ZNK6open3d1t8geometry19OrientedBoundingBox12GetBoxPointsEv(ptr dead_on_unwind nonnull writable sret(%"class.open3d::core::Tensor") align 8 %3, ptr noundef nonnull align 8 dereferenceable(928) %1)
  invoke void @_ZN6open3d1t8geometry22AxisAlignedBoundingBox16CreateFromPointsERKNS_4core6TensorE(ptr dead_on_unwind writable sret(%"class.open3d::t::geometry::AxisAlignedBoundingBox") align 8 %0, ptr noundef nonnull align 8 dereferenceable(160) %3)
          to label %4 unwind label %38

4:                                                ; preds = %2
  store ptr getelementptr inbounds nuw inrange(-16, 24) (i8, ptr @_ZTVN6open3d4core6TensorE, i64 16), ptr %3, align 8, !tbaa !4
  %5 = getelementptr inbounds nuw i8, ptr %3, i64 152
  %6 = load ptr, ptr %5, align 8, !tbaa !7
  %.not.i.i.i = icmp eq ptr %6, null
  br i1 %.not.i.i.i, label %_ZNSt12__shared_ptrIN6open3d4core4BlobELN9__gnu_cxx12_Lock_policyE2EED2Ev.exit.i, label %7

7:                                                ; preds = %4
  %8 = getelementptr inbounds nuw i8, ptr %6, i64 8
  %9 = load atomic i64, ptr %8 acquire, align 8
  %10 = icmp eq i64 %9, 4294967297
  %11 = trunc i64 %9 to i32
  br i1 %10, label %12, label %20

12:                                               ; preds = %7
  store i32 0, ptr %8, align 8, !tbaa !12
  %13 = getelementptr inbounds nuw i8, ptr %6, i64 12
  store i32 0, ptr %13, align 4, !tbaa !15
  %14 = load ptr, ptr %6, align 8, !tbaa !4
  %15 = getelementptr inbounds nuw i8, ptr %14, i64 16
  %16 = load ptr, ptr %15, align 8
  call void %16(ptr noundef nonnull align 8 dereferenceable(16) %6) #34
  %17 = load ptr, ptr %6, align 8, !tbaa !4
  %18 = getelementptr inbounds nuw i8, ptr %17, i64 24
  %19 = load ptr, ptr %18, align 8
  call void %19(ptr noundef nonnull align 8 dereferenceable(16) %6) #34
  br label %_ZNSt12__shared_ptrIN6open3d4core4BlobELN9__gnu_cxx12_Lock_policyE2EED2Ev.exit.i

20:                                               ; preds = %7
  %21 = load i8, ptr @__libc_single_threaded, align 1, !tbaa !16
  %.not.i.i.i.i = icmp eq i8 %21, 0
  br i1 %.not.i.i.i.i, label %24, label %22

22:                                               ; preds = %20
  %23 = add nsw i32 %11, -1
  store i32 %23, ptr %8, align 4, !tbaa !17
  br label %_ZN9__gnu_cxx27__exchange_and_add_dispatchEPii.exit.i.i.i.i

24:                                               ; preds = %20
  %25 = atomicrmw volatile add ptr %8, i32 -1 acq_rel, align 4
  br label %_ZN9__gnu_cxx27__exchange_and_add_dispatchEPii.exit.i.i.i.i

_ZN9__gnu_cxx27__exchange_and_add_dispatchEPii.exit.i.i.i.i: ; preds = %24, %22
  %.0.i.i.i.i.i = phi i32 [ %11, %22 ], [ %25, %24 ]
  %26 = icmp eq i32 %.0.i.i.i.i.i, 1
  br i1 %26, label %27, label %_ZNSt12__shared_ptrIN6open3d4core4BlobELN9__gnu_cxx12_Lock_policyE2EED2Ev.exit.i, !prof !18

27:                                               ; preds = %_ZN9__gnu_cxx27__exchange_and_add_dispatchEPii.exit.i.i.i.i
  call void @_ZNSt16_Sp_counted_baseILN9__gnu_cxx12_Lock_policyE2EE24_M_release_last_use_coldEv(ptr noundef nonnull align 8 dereferenceable(16) %6) #34
  br label %_ZNSt12__shared_ptrIN6open3d4core4BlobELN9__gnu_cxx12_Lock_policyE2EED2Ev.exit.i

_ZNSt12__shared_ptrIN6open3d4core4BlobELN9__gnu_cxx12_Lock_policyE2EED2Ev.exit.i: ; preds = %27, %_ZN9__gnu_cxx27__exchange_and_add_dispatchEPii.exit.i.i.i.i, %12, %4
  %28 = getelementptr inbounds nuw i8, ptr %3, i64 56
  %29 = load ptr, ptr %28, align 8, !tbaa !19
  %30 = getelementptr inbounds nuw i8, ptr %3, i64 72
  %31 = icmp eq ptr %29, %30
  br i1 %31, label %_ZN6open3d4core11SmallVectorIlLj4EED2Ev.exit.i, label %32

32:                                               ; preds = %_ZNSt12__shared_ptrIN6open3d4core4BlobELN9__gnu_cxx12_Lock_policyE2EED2Ev.exit.i
  call void @free(ptr noundef %29) #34
  br label %_ZN6open3d4core11SmallVectorIlLj4EED2Ev.exit.i

_ZN6open3d4core11SmallVectorIlLj4EED2Ev.exit.i:   ; preds = %32, %_ZNSt12__shared_ptrIN6open3d4core4BlobELN9__gnu_cxx12_Lock_policyE2EED2Ev.exit.i
  %33 = getelementptr inbounds nuw i8, ptr %3, i64 8
  %34 = load ptr, ptr %33, align 8, !tbaa !19
  %35 = getelementptr inbounds nuw i8, ptr %3, i64 24
  %36 = icmp eq ptr %34, %35
  br i1 %36, label %_ZN6open3d4core6TensorD2Ev.exit, label %37

37:                                               ; preds = %_ZN6open3d4core11SmallVectorIlLj4EED2Ev.exit.i
  call void @free(ptr noundef %34) #34
  br label %_ZN6open3d4core6TensorD2Ev.exit

_ZN6open3d4core6TensorD2Ev.exit:                  ; preds = %_ZN6open3d4core11SmallVectorIlLj4EED2Ev.exit.i, %37
  call void @llvm.lifetime.end.p0(i64 160, ptr nonnull %3) #34
  ret void

38:                                               ; preds = %2
  %39 = landingpad { ptr, i32 }
          cleanup
  call void @_ZN6open3d4core6TensorD2Ev(ptr noundef nonnull align 8 dereferenceable(160) %3) #34
  call void @llvm.lifetime.end.p0(i64 160, ptr nonnull %3) #34
  resume { ptr, i32 } %39
}